target datalayout = "e-m:e-p270:32:32-p271:32:32-p272:64:64-i64:64-i128:128-f80:128-n8:16:32:64-S128"
target triple = "x86_64-pc-linux-gnu"

%"class.std::__cxx11::basic_string" = type { %"struct.std::__cxx11::basic_string<char>::_Alloc_hider", i64, %union.anon }
%"struct.std::__cxx11::basic_string<char>::_Alloc_hider" = type { ptr }
%union.anon = type { i64, [8 x i8] }
%"class.std::allocator" = type { i8 }

@.str.30 = private unnamed_addr constant [10 x i8] c"'%c' (%d)\00", align 1
@.str.31 = private unnamed_addr constant [5 x i8] c"(%d)\00", align 1

; Function Attrs: mustprogress uwtable
define internal void @_ZN6json11L3escB5cxx11Ec(ptr dead_on_unwind noalias writable sret(%"class.std::__cxx11::basic_string") align 8 %0, i8 noundef signext %1) #0 personality ptr @__gxx_personality_v0 {
  %3 = alloca ptr, align 8
  %4 = alloca i8, align 1
  %5 = alloca [12 x i8], align 1
  %6 = alloca %"class.std::allocator", align 1
  %7 = alloca ptr, align 8
  %8 = alloca i32, align 4
  store ptr %0, ptr %3, align 8
  store i8 %1, ptr %4, align 1
  %9 = load i8, ptr %4, align 1
  %10 = zext i8 %9 to i32
  %11 = icmp sge i32 %10, 32
  br i1 %11, label %12, label %23

12:                                               ; preds = %2
  %13 = load i8, ptr %4, align 1
  %14 = zext i8 %13 to i32
  %15 = icmp sle i32 %14, 127
  br i1 %15, label %16, label %23

16:                                               ; preds = %12
  %17 = getelementptr inbounds [12 x i8], ptr %5, i64 0, i64 0
  %18 = load i8, ptr %4, align 1
  %19 = sext i8 %18 to i32
  %20 = load i8, ptr %4, align 1
  %21 = sext i8 %20 to i32
  %22 = call i32 (ptr, i64, ptr, ...) @snprintf(ptr noundef %17, i64 noundef 12, ptr noundef @.str.30, i32 noundef %19, i32 noundef %21) #4
  br label %28

23:                                               ; preds = %12, %2
  %24 = getelementptr inbounds [12 x i8], ptr %5, i64 0, i64 0
  %25 = load i8, ptr %4, align 1
  %26 = sext i8 %25 to i32
  %27 = call i32 (ptr, i64, ptr, ...) @snprintf(ptr noundef %24, i64 noundef 12, ptr noundef @.str.31, i32 noundef %26) #4
  br label %28

28:                                               ; preds = %23, %16
  %29 = getelementptr inbounds [12 x i8], ptr %5, i64 0, i64 0
  call void @_ZNSaIcEC1Ev(ptr noundef nonnull align 1 dereferenceable(1) %6) #4
  invoke void @_ZNSt7__cxx1112basic_stringIcSt11char_traitsIcESaIcEEC1EPKcRKS3_(ptr noundef nonnull align 8 dereferenceable(32) %0, ptr noundef %29, ptr noundef nonnull align 1 dereferenceable(1) %6)
          to label %30 unwind label %31

30:                                               ; preds = %28
  call void @_ZNSaIcED1Ev(ptr noundef nonnull align 1 dereferenceable(1) %6) #4
  ret void

31:                                               ; preds = %28
  %32 = landingpad { ptr, i32 }
          cleanup
  %33 = extractvalue { ptr, i32 } %32, 0
  store ptr %33, ptr %7, align 8
  %34 = extractvalue { ptr, i32 } %32, 1
  store i32 %34, ptr %8, align 4
  call void @_ZNSaIcED1Ev(ptr noundef nonnull align 1 dereferenceable(1) %6) #4
  br label %35

35:                                               ; preds = %31
  %36 = load ptr, ptr %7, align 8
  %37 = load i32, ptr %8, align 4
  %38 = insertvalue { ptr, i32 } poison, ptr %36, 0
  %39 = insertvalue { ptr, i32 } %38, i32 %37, 1
  resume { ptr, i32 } %39
}